target datalayout = "e-m:e-p270:32:32-p271:32:32-p272:64:64-i64:64-i128:128-f80:128-n8:16:32:64-S128"
target triple = "x86_64-pc-linux-gnu"

@.str.6 = private unnamed_addr constant [37 x i8] c"../openssl/test/provider_pkey_test.c\00", align 1
@.str.11 = private unnamed_addr constant [4 x i8] c"RSA\00", align 1
@.str.26 = private unnamed_addr constant [4 x i8] c"sig\00", align 1
@.str.27 = private unnamed_addr constant [40 x i8] c"prov = EVP_SIGNATURE_get0_provider(sig)\00", align 1
@.str.28 = private unnamed_addr constant [5 x i8] c"prov\00", align 1
@.str.29 = private unnamed_addr constant [14 x i8] c"expected_prov\00", align 1
@.str.30 = private unnamed_addr constant [44 x i8] c"Fetched provider: %s, Expected provider: %s\00", align 1

; Function Attrs: nounwind uwtable
define internal i32 @fetch_sig(ptr noundef %0, ptr noundef %1, ptr noundef %2, ptr noundef %3) #0 {
  %5 = alloca i32, align 4
  %6 = alloca ptr, align 8
  %7 = alloca ptr, align 8
  %8 = alloca ptr, align 8
  %9 = alloca ptr, align 8
  %10 = alloca ptr, align 8
  %11 = alloca ptr, align 8
  %12 = alloca i32, align 4
  %13 = alloca i32, align 4
  store ptr %0, ptr %6, align 8, !tbaa !4
  store ptr %1, ptr %7, align 8, !tbaa !21
  store ptr %2, ptr %8, align 8, !tbaa !21
  store ptr %3, ptr %9, align 8, !tbaa !9
  call void @llvm.lifetime.start.p0(i64 8, ptr %10) #3
  call void @llvm.lifetime.start.p0(i64 8, ptr %11) #3
  %14 = load ptr, ptr %6, align 8, !tbaa !4
  %15 = load ptr, ptr %8, align 8, !tbaa !21
  %16 = call ptr @EVP_SIGNATURE_fetch(ptr noundef %14, ptr noundef @.str.11, ptr noundef %15)
  store ptr %16, ptr %11, align 8, !tbaa !36
  call void @llvm.lifetime.start.p0(i64 4, ptr %12) #3
  store i32 0, ptr %12, align 4, !tbaa !11
  %17 = load ptr, ptr %11, align 8, !tbaa !36
  %18 = call i32 @test_ptr(ptr noundef @.str.6, i32 noundef 32, ptr noundef @.str.26, ptr noundef %17)
  %19 = icmp ne i32 %18, 0
  br i1 %19, label %21, label %20

20:                                               ; preds = %4
  store i32 0, ptr %5, align 4
  store i32 1, ptr %13, align 4
  br label %41

21:                                               ; preds = %4
  %22 = load ptr, ptr %11, align 8, !tbaa !36
  %23 = call ptr @EVP_SIGNATURE_get0_provider(ptr noundef %22)
  store ptr %23, ptr %10, align 8, !tbaa !9
  %24 = call i32 @test_ptr(ptr noundef @.str.6, i32 noundef 35, ptr noundef @.str.27, ptr noundef %23)
  %25 = icmp ne i32 %24, 0
  br i1 %25, label %27, label %26

26:                                               ; preds = %21
  br label %38

27:                                               ; preds = %21
  %28 = load ptr, ptr %10, align 8, !tbaa !9
  %29 = load ptr, ptr %9, align 8, !tbaa !9
  %30 = call i32 @test_ptr_eq(ptr noundef @.str.6, i32 noundef 38, ptr noundef @.str.28, ptr noundef @.str.29, ptr noundef %28, ptr noundef %29)
  %31 = icmp ne i32 %30, 0
  br i1 %31, label %37, label %32

32:                                               ; preds = %27
  %33 = load ptr, ptr %10, align 8, !tbaa !9
  %34 = call ptr @OSSL_PROVIDER_get0_name(ptr noundef %33)
  %35 = load ptr, ptr %9, align 8, !tbaa !9
  %36 = call ptr @OSSL_PROVIDER_get0_name(ptr noundef %35)
  call void (ptr, i32, ptr, ...) @test_info(ptr noundef @.str.6, i32 noundef 41, ptr noundef @.str.30, ptr noundef %34, ptr noundef %36)
  br label %38

37:                                               ; preds = %27
  store i32 1, ptr %12, align 4, !tbaa !11
  br label %38

38:                                               ; preds = %37, %32, %26
  %39 = load ptr, ptr %11, align 8, !tbaa !36
  call void @EVP_SIGNATURE_free(ptr noundef %39)
  %40 = load i32, ptr %12, align 4, !tbaa !11
  store i32 %40, ptr %5, align 4
  store i32 1, ptr %13, align 4
  br label %41

41:                                               ; preds = %38, %20
  call void @llvm.lifetime.end.p0(i64 4, ptr %12) #3
  call void @llvm.lifetime.end.p0(i64 8, ptr %11) #3
  call void @llvm.lifetime.end.p0(i64 8, ptr %10) #3
  %42 = load i32, ptr %5, align 4
  ret i32 %42
}