; Function Attrs: nounwind uwtable
define internal fastcc range(i32 0, 2) i32 @fetch_sig(ptr noundef %0, ptr noundef %1, ptr noundef %2) unnamed_addr #0 {
  %4 = tail call ptr @EVP_SIGNATURE_fetch(ptr noundef %0, ptr noundef nonnull @.str.11, ptr noundef %1) #3
  %5 = tail call i32 @test_ptr(ptr noundef nonnull @.str.6, i32 noundef 32, ptr noundef nonnull @.str.26, ptr noundef %4) #3
  %.not = icmp eq i32 %5, 0
  br i1 %.not, label %15, label %6

6:                                                ; preds = %3
  %7 = tail call ptr @EVP_SIGNATURE_get0_provider(ptr noundef %4) #3
  %8 = tail call i32 @test_ptr(ptr noundef nonnull @.str.6, i32 noundef 35, ptr noundef nonnull @.str.27, ptr noundef %7) #3
  %.not11 = icmp eq i32 %8, 0
  br i1 %.not11, label %14, label %9

9:                                                ; preds = %6
  %10 = tail call i32 @test_ptr_eq(ptr noundef nonnull @.str.6, i32 noundef 38, ptr noundef nonnull @.str.28, ptr noundef nonnull @.str.29, ptr noundef %7, ptr noundef %2) #3
  %.not12 = icmp eq i32 %10, 0
  br i1 %.not12, label %11, label %14

11:                                               ; preds = %9
  %12 = tail call ptr @OSSL_PROVIDER_get0_name(ptr noundef %7) #3
  %13 = tail call ptr @OSSL_PROVIDER_get0_name(ptr noundef %2) #3
  tail call void (ptr, i32, ptr, ...) @test_info(ptr noundef nonnull @.str.6, i32 noundef 41, ptr noundef nonnull @.str.30, ptr noundef %12, ptr noundef %13) #3
  br label %14

14:                                               ; preds = %9, %6, %11
  %.0 = phi i32 [ 0, %11 ], [ 0, %6 ], [ 1, %9 ]
  tail call void @EVP_SIGNATURE_free(ptr noundef %4) #3
  br label %15

15:                                               ; preds = %3, %14
  %.010 = phi i32 [ %.0, %14 ], [ 0, %3 ]
  ret i32 %.010
}